	.file	"simplemath.cpp"
	.text
	.globl	_Z3sumff
	.type	_Z3sumff, @function
_Z3sumff:
.LFB0:
	.cfi_startproc
	pushq	%rbp
	.cfi_def_cfa_offset 16
	.cfi_offset 6, -16
	movq	%rsp, %rbp
	.cfi_def_cfa_register 6
	movss	%xmm0, -4(%rbp)
	movss	%xmm1, -8(%rbp)
	movss	-4(%rbp), %xmm0
	addss	-8(%rbp), %xmm0
	popq	%rbp
	.cfi_def_cfa 7, 8
	ret
	.cfi_endproc
.LFE0:
	.size	_Z3sumff, .-_Z3sumff
	.globl	_Z3subff
	.type	_Z3subff, @function
_Z3subff:
.LFB1:
	.cfi_startproc
	pushq	%rbp
	.cfi_def_cfa_offset 16
	.cfi_offset 6, -16
	movq	%rsp, %rbp
	.cfi_def_cfa_register 6
	movss	%xmm0, -4(%rbp)
	movss	%xmm1, -8(%rbp)
	movss	-4(%rbp), %xmm0
	subss	-8(%rbp), %xmm0
	popq	%rbp
	.cfi_def_cfa 7, 8
	ret
	.cfi_endproc
.LFE1:
	.size	_Z3subff, .-_Z3subff
	.globl	_Z3mulff
	.type	_Z3mulff, @function
_Z3mulff:
.LFB2:
	.cfi_startproc
	pushq	%rbp
	.cfi_def_cfa_offset 16
	.cfi_offset 6, -16
	movq	%rsp, %rbp
	.cfi_def_cfa_register 6
	movss	%xmm0, -4(%rbp)
	movss	%xmm1, -8(%rbp)
	movss	-4(%rbp), %xmm0
	mulss	-8(%rbp), %xmm0
	popq	%rbp
	.cfi_def_cfa 7, 8
	ret
	.cfi_endproc
.LFE2:
	.size	_Z3mulff, .-_Z3mulff
	.globl	_Z3divff
	.type	_Z3divff, @function
_Z3divff:
.LFB3:
	.cfi_startproc
	pushq	%rbp
	.cfi_def_cfa_offset 16
	.cfi_offset 6, -16
	movq	%rsp, %rbp
	.cfi_def_cfa_register 6
	movss	%xmm0, -4(%rbp)
	movss	%xmm1, -8(%rbp)
	movss	-4(%rbp), %xmm0
	divss	-8(%rbp), %xmm0
	popq	%rbp
	.cfi_def_cfa 7, 8
	ret
	.cfi_endproc
.LFE3:
	.size	_Z3divff, .-_Z3divff
	.globl	_Z6squaref
	.type	_Z6squaref, @function
_Z6squaref:
.LFB4:
	.cfi_startproc
	pushq	%rbp
	.cfi_def_cfa_offset 16
	.cfi_offset 6, -16
	movq	%rsp, %rbp
	.cfi_def_cfa_register 6
	subq	$8, %rsp
	movss	%xmm0, -4(%rbp)
	movss	-4(%rbp), %xmm0
	movl	-4(%rbp), %eax
	movaps	%xmm0, %xmm1
	movl	%eax, -8(%rbp)
	movss	-8(%rbp), %xmm0
	call	_Z3mulff
	leave
	.cfi_def_cfa 7, 8
	ret
	.cfi_endproc
.LFE4:
	.size	_Z6squaref, .-_Z6squaref
	.ident	"GCC: (Ubuntu 7.5.0-3ubuntu1~18.04) 7.5.0"
	.section	.note.GNU-stack,"",@progbits
